; Function Attrs: mustprogress nofree norecurse nosync nounwind willreturn memory(argmem: write) uwtable
define dso_local void @sql_fn_parser_setup(ptr noundef writeonly captures(none) initializes((200, 224), (232, 240)) %0, ptr noundef %1) #5 {
  %3 = getelementptr inbounds nuw i8, ptr %0, i64 200
  store ptr null, ptr %3, align 8
  %4 = getelementptr inbounds nuw i8, ptr %0, i64 208
  store ptr @sql_fn_post_column_ref, ptr %4, align 8
  %5 = getelementptr inbounds nuw i8, ptr %0, i64 216
  store ptr @sql_fn_param_ref, ptr %5, align 8
  %6 = getelementptr inbounds nuw i8, ptr %0, i64 232
  store ptr %1, ptr %6, align 8
  ret void
}